; Function Attrs: nounwind sspstrong uwtable
define internal void @external_snapshot_clean(ptr noundef %0) #0 {
  %2 = load ptr, ptr %0, align 8
  %.not = icmp eq ptr %2, null
  br i1 %.not, label %6, label %3

3:                                                ; preds = %1
  tail call void @bdrv_drained_end(ptr noundef nonnull %2) #14
  %4 = getelementptr inbounds nuw i8, ptr %0, i64 8
  %5 = load ptr, ptr %4, align 8
  tail call void @bdrv_unref(ptr noundef %5) #14
  br label %6

6:                                                ; preds = %1, %3
  tail call void @g_free(ptr noundef nonnull %0) #14
  ret void
}